; Function Attrs: mustprogress nounwind uwtable
define noundef ptr @_ZN10duckdb_hll12sdscatprintfEPcPKcz(ptr noundef captures(address, ret: address, provenance) %0, ptr noundef readonly captures(none) %1, ...) local_unnamed_addr #16 {
  %3 = alloca [1 x %struct.__va_list_tag], align 16
  call void @llvm.lifetime.start.p0(i64 24, ptr nonnull %3) #30
  call void @llvm.va_start.p0(ptr nonnull %3)
  %4 = call noundef ptr @_ZN10duckdb_hll13sdscatvprintfEPcPKcP13__va_list_tag(ptr noundef %0, ptr noundef %1, ptr noundef nonnull %3)
  call void @llvm.va_end.p0(ptr nonnull %3)
  call void @llvm.lifetime.end.p0(i64 24, ptr nonnull %3) #30
  ret ptr %4
}